; Function Attrs: mustprogress uwtable
define noundef double @_ZNK8QuantLib21FdmBlackScholesSolver7thetaAtEd(ptr nocapture noundef nonnull readonly align 8 dereferenceable(208) %this, double noundef %s) local_unnamed_addr #1 align 2 {
entry:
  %solver_ = getelementptr inbounds nuw i8, ptr %this, i64 192
  %0 = load ptr, ptr %solver_, align 8, !tbaa !103
  %cmp.not.i = icmp eq ptr %0, null
  br i1 %cmp.not.i, label %cond.false.i, label %_ZNK5boost10shared_ptrIN8QuantLib13Fdm1DimSolverEEptEv.exit, !prof !68

cond.false.i:                                     ; preds = %entry
  tail call void @_ZN5boost16assertion_failedEPKcS1_S1_l(ptr noundef nonnull @.str.10, ptr noundef nonnull @__PRETTY_FUNCTION__._ZNK5boost10shared_ptrIN8QuantLib13Fdm1DimSolverEEptEv, ptr noundef nonnull @.str.11, i64 noundef 784)
  %.pre.i = load ptr, ptr %solver_, align 8, !tbaa !103
  br label %_ZNK5boost10shared_ptrIN8QuantLib13Fdm1DimSolverEEptEv.exit

_ZNK5boost10shared_ptrIN8QuantLib13Fdm1DimSolverEEptEv.exit: ; preds = %entry, %cond.false.i
  %1 = phi ptr [ %0, %entry ], [ %.pre.i, %cond.false.i ]
  %call2 = tail call double @log(double noundef %s) #27, !tbaa !99
  %call3 = tail call noundef double @_ZNK8QuantLib13Fdm1DimSolver7thetaAtEd(ptr noundef nonnull align 8 dereferenceable(264) %1, double noundef %call2)
  ret double %call3
}